target datalayout = "e-m:e-p270:32:32-p271:32:32-p272:64:64-i64:64-i128:128-f80:128-n8:16:32:64-S128"
target triple = "x86_64-pc-linux-gnu"

%struct.ARKodeMemRec = type { ptr, double, ptr, i32, i32, double, double, ptr, i32, double, ptr, i32, i32, ptr, ptr, i32, ptr, ptr, i32, ptr, ptr, ptr, ptr, ptr, ptr, ptr, ptr, ptr, ptr, ptr, ptr, ptr, ptr, ptr, i32, ptr, ptr, i32, ptr, i32, ptr, ptr, ptr, ptr, ptr, ptr, ptr, ptr, ptr, ptr, ptr, ptr, ptr, ptr, ptr, ptr, ptr, ptr, ptr, ptr, ptr, ptr, ptr, ptr, ptr, ptr, i32, ptr, ptr, ptr, ptr, ptr, ptr, ptr, i32, ptr, ptr, ptr, i32, ptr, ptr, ptr, ptr, ptr, ptr, ptr, i32, i32, i32, i32, double, double, double, double, double, double, double, double, double, double, i32, ptr, i64, i32, i32, i32, i32, i64, i64, i32, i64, i64, i64, i64, i64, i64, i64, double, double, double, double, double, i32, double, double, i32, i32, i32, i32, i32, i32, i32, i32, ptr, i32, ptr, ptr, ptr, ptr, i32, i32, i32 }
%struct.ARKodeARKStepMemRec = type { ptr, ptr, i32, i32, i32, i32, i32, i32, ptr, ptr, ptr, ptr, ptr, ptr, i32, i32, i32, i32, ptr, ptr, ptr, ptr, i32, ptr, double, double, double, double, i32, double, double, double, double, double, double, i32, i64, i32, i32, i32, ptr, ptr, ptr, ptr, ptr, ptr, i32, ptr, ptr, ptr, ptr, ptr, ptr, i32, i32, i64, i64, i64, i64, i64, ptr, ptr, i32, i32, i32, double, double, ptr, i32, ptr, ptr }

@.str = private unnamed_addr constant [123 x i8] c"generated/home/dtcxzyw/WorkSpace/Projects/compilers/llvm-opt-benchmark/bench/sundials/sundials/src/arkode/arkode_arkstep.c\00", align 1
@__func__.arkStep_GetGammas = private unnamed_addr constant [18 x i8] c"arkStep_GetGammas\00", align 1
@.str.57 = private unnamed_addr constant [33 x i8] c"Time step module memory is NULL.\00", align 1

; Function Attrs: nounwind uwtable
define i32 @arkStep_AccessStepMem(ptr noundef %0, ptr noundef %1, ptr noundef %2) #0 {
  %4 = alloca i32, align 4
  %5 = alloca ptr, align 8
  %6 = alloca ptr, align 8
  %7 = alloca ptr, align 8
  store ptr %0, ptr %5, align 8, !tbaa !15
  store ptr %1, ptr %6, align 8, !tbaa !217
  store ptr %2, ptr %7, align 8, !tbaa !221
  %8 = load ptr, ptr %5, align 8, !tbaa !15
  %9 = getelementptr inbounds nuw %struct.ARKodeMemRec, ptr %8, i32 0, i32 19
  %10 = load ptr, ptr %9, align 8, !tbaa !74
  %11 = icmp eq ptr %10, null
  br i1 %11, label %12, label %15

12:                                               ; preds = %3
  %13 = load ptr, ptr %5, align 8, !tbaa !15
  %14 = load ptr, ptr %6, align 8, !tbaa !217
  call void (ptr, i32, i32, ptr, ptr, ptr, ...) @arkProcessError(ptr noundef %13, i32 noundef -21, i32 noundef 2165, ptr noundef %14, ptr noundef @.str, ptr noundef @.str.57)
  store i32 -21, ptr %4, align 4
  br label %20

15:                                               ; preds = %3
  %16 = load ptr, ptr %5, align 8, !tbaa !15
  %17 = getelementptr inbounds nuw %struct.ARKodeMemRec, ptr %16, i32 0, i32 19
  %18 = load ptr, ptr %17, align 8, !tbaa !74
  %19 = load ptr, ptr %7, align 8, !tbaa !221
  store ptr %18, ptr %19, align 8, !tbaa !17
  store i32 0, ptr %4, align 4
  br label %20

20:                                               ; preds = %15, %12
  %21 = load i32, ptr %4, align 4
  ret i32 %21
}

; Function Attrs: nounwind uwtable
define i32 @arkStep_GetGammas(ptr noundef %0, ptr noundef %1, ptr noundef %2, ptr noundef %3, ptr noundef %4) #0 {
  %6 = alloca i32, align 4
  %7 = alloca ptr, align 8
  %8 = alloca ptr, align 8
  %9 = alloca ptr, align 8
  %10 = alloca ptr, align 8
  %11 = alloca ptr, align 8
  %12 = alloca ptr, align 8
  %13 = alloca i32, align 4
  %14 = alloca i32, align 4
  store ptr %0, ptr %7, align 8, !tbaa !15
  store ptr %1, ptr %8, align 8, !tbaa !128
  store ptr %2, ptr %9, align 8, !tbaa !128
  store ptr %3, ptr %10, align 8, !tbaa !129
  store ptr %4, ptr %11, align 8, !tbaa !131
  call void @llvm.lifetime.start.p0(i64 8, ptr %12) #8
  call void @llvm.lifetime.start.p0(i64 4, ptr %13) #8
  %15 = load ptr, ptr %7, align 8, !tbaa !15
  %16 = call i32 @arkStep_AccessStepMem(ptr noundef %15, ptr noundef @__func__.arkStep_GetGammas, ptr noundef %12)
  store i32 %16, ptr %13, align 4, !tbaa !13
  %17 = load i32, ptr %13, align 4, !tbaa !13
  %18 = icmp ne i32 %17, 0
  br i1 %18, label %19, label %21

19:                                               ; preds = %5
  %20 = load i32, ptr %13, align 4, !tbaa !13
  store i32 %20, ptr %6, align 4
  store i32 1, ptr %14, align 4
  br label %46

21:                                               ; preds = %5
  %22 = load ptr, ptr %7, align 8, !tbaa !15
  %23 = getelementptr inbounds nuw %struct.ARKodeMemRec, ptr %22, i32 0, i32 19
  %24 = load ptr, ptr %23, align 8, !tbaa !74
  store ptr %24, ptr %12, align 8, !tbaa !17
  %25 = load ptr, ptr %12, align 8, !tbaa !17
  %26 = getelementptr inbounds nuw %struct.ARKodeARKStepMemRec, ptr %25, i32 0, i32 24
  %27 = load double, ptr %26, align 8, !tbaa !133
  %28 = load ptr, ptr %8, align 8, !tbaa !128
  store double %27, ptr %28, align 8, !tbaa !7
  %29 = load ptr, ptr %12, align 8, !tbaa !17
  %30 = getelementptr inbounds nuw %struct.ARKodeARKStepMemRec, ptr %29, i32 0, i32 26
  %31 = load double, ptr %30, align 8, !tbaa !134
  %32 = load ptr, ptr %9, align 8, !tbaa !128
  store double %31, ptr %32, align 8, !tbaa !7
  %33 = load ptr, ptr %12, align 8, !tbaa !17
  %34 = getelementptr inbounds nuw %struct.ARKodeARKStepMemRec, ptr %33, i32 0, i32 39
  %35 = load ptr, ptr %10, align 8, !tbaa !129
  store ptr %34, ptr %35, align 8, !tbaa !131
  %36 = load ptr, ptr %9, align 8, !tbaa !128
  %37 = load double, ptr %36, align 8, !tbaa !7
  %38 = fsub double %37, 1.000000e+00
  %39 = call double @llvm.fabs.f64(double %38)
  %40 = load ptr, ptr %12, align 8, !tbaa !17
  %41 = getelementptr inbounds nuw %struct.ARKodeARKStepMemRec, ptr %40, i32 0, i32 27
  %42 = load double, ptr %41, align 8, !tbaa !135
  %43 = fcmp oge double %39, %42
  %44 = zext i1 %43 to i32
  %45 = load ptr, ptr %11, align 8, !tbaa !131
  store i32 %44, ptr %45, align 4, !tbaa !13
  store i32 0, ptr %6, align 4
  store i32 1, ptr %14, align 4
  br label %46

46:                                               ; preds = %21, %19
  call void @llvm.lifetime.end.p0(i64 4, ptr %13) #8
  call void @llvm.lifetime.end.p0(i64 8, ptr %12) #8
  %47 = load i32, ptr %6, align 4
  ret i32 %47
}