; Function Attrs: nounwind uwtable
define range(i32 -21, 1) i32 @arkStep_GetGammas(ptr noundef %0, ptr noundef writeonly captures(none) %1, ptr noundef writeonly captures(none) %2, ptr noundef writeonly captures(none) %3, ptr noundef writeonly captures(none) %4) #0 {
  %6 = getelementptr inbounds nuw i8, ptr %0, i64 136
  %7 = load ptr, ptr %6, align 8, !tbaa !77
  %8 = icmp eq ptr %7, null
  br i1 %8, label %arkStep_AccessStepMem.exit, label %9

arkStep_AccessStepMem.exit:                       ; preds = %5
  tail call void (ptr, i32, i32, ptr, ptr, ptr, ...) @arkProcessError(ptr noundef nonnull %0, i32 noundef -21, i32 noundef 2165, ptr noundef nonnull @__func__.arkStep_GetGammas, ptr noundef nonnull @.str, ptr noundef nonnull @.str.57) #13
  br label %21

9:                                                ; preds = %5
  %10 = getelementptr inbounds nuw i8, ptr %7, i64 152
  %11 = load double, ptr %10, align 8, !tbaa !111
  store double %11, ptr %1, align 8, !tbaa !112
  %12 = getelementptr inbounds nuw i8, ptr %7, i64 168
  %13 = load double, ptr %12, align 8, !tbaa !113
  store double %13, ptr %2, align 8, !tbaa !112
  %14 = getelementptr inbounds nuw i8, ptr %7, i64 264
  store ptr %14, ptr %3, align 8, !tbaa !114
  %15 = fadd double %13, -1.000000e+00
  %16 = tail call double @llvm.fabs.f64(double %15)
  %17 = getelementptr inbounds nuw i8, ptr %7, i64 176
  %18 = load double, ptr %17, align 8, !tbaa !116
  %19 = fcmp oge double %16, %18
  %20 = zext i1 %19 to i32
  store i32 %20, ptr %4, align 4, !tbaa !117
  br label %21

21:                                               ; preds = %arkStep_AccessStepMem.exit, %9
  %.0 = phi i32 [ 0, %9 ], [ -21, %arkStep_AccessStepMem.exit ]
  ret i32 %.0
}